target datalayout = "e-m:e-p270:32:32-p271:32:32-p272:64:64-i64:64-i128:128-f80:128-n8:16:32:64-S128"
target triple = "x86_64-pc-linux-gnu"

%struct.SDL_AtomicInt = type { i32 }
%struct.SDL_AudioStream = type { ptr, i32, ptr, ptr, ptr, ptr, %struct.SDL_AudioSpec, %struct.SDL_AudioSpec, ptr, ptr, float, float, ptr, %struct.SDL_AudioSpec, ptr, [8 x i32], i64, ptr, i64, i8, ptr, ptr, ptr, ptr, ptr }
%struct.SDL_AudioSpec = type { i32, i32, i32 }
%struct.SDL_AudioDevice = type { ptr, ptr, %struct.SDL_AtomicInt, ptr, ptr, ptr, ptr, ptr, ptr, ptr, i32, ptr, %struct.SDL_AudioSpec, i32, ptr, %struct.SDL_AudioSpec, i32, i32, %struct.SDL_AtomicInt, %struct.SDL_AtomicInt, i8, i8, ptr, ptr, ptr, i32, ptr, i8, ptr, ptr }
%struct.SDL_LogicalAudioDevice = type { i32, ptr, %struct.SDL_AtomicInt, float, ptr, i8, i8, ptr, ptr, ptr, ptr, ptr, ptr, ptr }

; Function Attrs: nounwind uwtable
define internal zeroext i1 @AudioDeviceCanUseSimpleCopy(ptr noundef %0) #0 {
  %2 = alloca ptr, align 8
  store ptr %0, ptr %2, align 8
  br label %3

3:                                                ; preds = %1
  br label %4

4:                                                ; preds = %3
  %5 = load ptr, ptr %2, align 8
  %6 = getelementptr inbounds nuw %struct.SDL_AudioDevice, ptr %5, i32 0, i32 29
  %7 = load ptr, ptr %6, align 8
  %8 = icmp ne ptr %7, null
  br i1 %8, label %9, label %40

9:                                                ; preds = %4
  %10 = load ptr, ptr %2, align 8
  %11 = getelementptr inbounds nuw %struct.SDL_AudioDevice, ptr %10, i32 0, i32 29
  %12 = load ptr, ptr %11, align 8
  %13 = getelementptr inbounds nuw %struct.SDL_LogicalAudioDevice, ptr %12, i32 0, i32 12
  %14 = load ptr, ptr %13, align 8
  %15 = icmp ne ptr %14, null
  br i1 %15, label %40, label %16

16:                                               ; preds = %9
  %17 = load ptr, ptr %2, align 8
  %18 = getelementptr inbounds nuw %struct.SDL_AudioDevice, ptr %17, i32 0, i32 29
  %19 = load ptr, ptr %18, align 8
  %20 = getelementptr inbounds nuw %struct.SDL_LogicalAudioDevice, ptr %19, i32 0, i32 10
  %21 = load ptr, ptr %20, align 8
  %22 = icmp ne ptr %21, null
  br i1 %22, label %40, label %23

23:                                               ; preds = %16
  %24 = load ptr, ptr %2, align 8
  %25 = getelementptr inbounds nuw %struct.SDL_AudioDevice, ptr %24, i32 0, i32 29
  %26 = load ptr, ptr %25, align 8
  %27 = getelementptr inbounds nuw %struct.SDL_LogicalAudioDevice, ptr %26, i32 0, i32 4
  %28 = load ptr, ptr %27, align 8
  %29 = icmp ne ptr %28, null
  br i1 %29, label %30, label %40

30:                                               ; preds = %23
  %31 = load ptr, ptr %2, align 8
  %32 = getelementptr inbounds nuw %struct.SDL_AudioDevice, ptr %31, i32 0, i32 29
  %33 = load ptr, ptr %32, align 8
  %34 = getelementptr inbounds nuw %struct.SDL_LogicalAudioDevice, ptr %33, i32 0, i32 4
  %35 = load ptr, ptr %34, align 8
  %36 = getelementptr inbounds nuw %struct.SDL_AudioStream, ptr %35, i32 0, i32 21
  %37 = load ptr, ptr %36, align 8
  %38 = icmp ne ptr %37, null
  %39 = xor i1 %38, true
  br label %40

40:                                               ; preds = %30, %23, %16, %9, %4
  %41 = phi i1 [ false, %23 ], [ false, %16 ], [ false, %9 ], [ false, %4 ], [ %39, %30 ]
  ret i1 %41
}

; Function Attrs: nounwind uwtable
define internal void @UpdateAudioStreamFormatsPhysical(ptr noundef %0) #0 {
  %2 = alloca ptr, align 8
  %3 = alloca i8, align 1
  %4 = alloca %struct.SDL_AudioSpec, align 4
  %5 = alloca i32, align 4
  %6 = alloca i8, align 1
  %7 = alloca ptr, align 8
  %8 = alloca i32, align 4
  %9 = alloca i8, align 1
  %10 = alloca ptr, align 8
  %11 = alloca ptr, align 8
  %12 = alloca ptr, align 8
  store ptr %0, ptr %2, align 8
  %13 = load ptr, ptr %2, align 8
  %14 = icmp ne ptr %13, null
  br i1 %14, label %16, label %15

15:                                               ; preds = %1
  br label %131

16:                                               ; preds = %1
  call void @llvm.lifetime.start.p0(i64 1, ptr %3) #6
  %17 = load ptr, ptr %2, align 8
  %18 = getelementptr inbounds nuw %struct.SDL_AudioDevice, ptr %17, i32 0, i32 20
  %19 = load i8, ptr %18, align 4, !range !5, !noundef !6
  %20 = trunc i8 %19 to i1
  %21 = zext i1 %20 to i8
  store i8 %21, ptr %3, align 1
  call void @llvm.lifetime.start.p0(i64 12, ptr %4) #6
  %22 = load ptr, ptr %2, align 8
  %23 = getelementptr inbounds nuw %struct.SDL_AudioDevice, ptr %22, i32 0, i32 12
  call void @llvm.memcpy.p0.p0.i64(ptr align 4 %4, ptr align 8 %23, i64 12, i1 false)
  call void @llvm.lifetime.start.p0(i64 4, ptr %5) #6
  %24 = getelementptr inbounds nuw %struct.SDL_AudioSpec, ptr %4, i32 0, i32 0
  %25 = load i32, ptr %24, align 4
  store i32 %25, ptr %5, align 4
  %26 = load i8, ptr %3, align 1, !range !5, !noundef !6
  %27 = trunc i8 %26 to i1
  br i1 %27, label %42, label %28

28:                                               ; preds = %16
  call void @llvm.lifetime.start.p0(i64 1, ptr %6) #6
  %29 = load ptr, ptr %2, align 8
  %30 = call zeroext i1 @AudioDeviceCanUseSimpleCopy(ptr noundef %29)
  %31 = zext i1 %30 to i8
  store i8 %31, ptr %6, align 1
  %32 = load i8, ptr %6, align 1, !range !5, !noundef !6
  %33 = trunc i8 %32 to i1
  %34 = load ptr, ptr %2, align 8
  %35 = getelementptr inbounds nuw %struct.SDL_AudioDevice, ptr %34, i32 0, i32 21
  %36 = zext i1 %33 to i8
  store i8 %36, ptr %35, align 1
  %37 = load i8, ptr %6, align 1, !range !5, !noundef !6
  %38 = trunc i8 %37 to i1
  br i1 %38, label %41, label %39

39:                                               ; preds = %28
  %40 = getelementptr inbounds nuw %struct.SDL_AudioSpec, ptr %4, i32 0, i32 0
  store i32 33056, ptr %40, align 4
  br label %41

41:                                               ; preds = %39, %28
  call void @llvm.lifetime.end.p0(i64 1, ptr %6) #6
  br label %42

42:                                               ; preds = %41, %16
  call void @llvm.lifetime.start.p0(i64 8, ptr %7) #6
  %43 = load ptr, ptr %2, align 8
  %44 = getelementptr inbounds nuw %struct.SDL_AudioDevice, ptr %43, i32 0, i32 29
  %45 = load ptr, ptr %44, align 8
  store ptr %45, ptr %7, align 8
  br label %46

46:                                               ; preds = %126, %42
  %47 = load ptr, ptr %7, align 8
  %48 = icmp ne ptr %47, null
  br i1 %48, label %50, label %49

49:                                               ; preds = %46
  store i32 2, ptr %8, align 4
  call void @llvm.lifetime.end.p0(i64 8, ptr %7) #6
  br label %130

50:                                               ; preds = %46
  %51 = load i8, ptr %3, align 1, !range !5, !noundef !6
  %52 = trunc i8 %51 to i1
  br i1 %52, label %53, label %74

53:                                               ; preds = %50
  call void @llvm.lifetime.start.p0(i64 1, ptr %9) #6
  %54 = load ptr, ptr %7, align 8
  %55 = getelementptr inbounds nuw %struct.SDL_LogicalAudioDevice, ptr %54, i32 0, i32 10
  %56 = load ptr, ptr %55, align 8
  %57 = icmp ne ptr %56, null
  br i1 %57, label %63, label %58

58:                                               ; preds = %53
  %59 = load ptr, ptr %7, align 8
  %60 = getelementptr inbounds nuw %struct.SDL_LogicalAudioDevice, ptr %59, i32 0, i32 3
  %61 = load float, ptr %60, align 4
  %62 = fcmp une float %61, 1.000000e+00
  br label %63

63:                                               ; preds = %58, %53
  %64 = phi i1 [ true, %53 ], [ %62, %58 ]
  %65 = zext i1 %64 to i8
  store i8 %65, ptr %9, align 1
  %66 = load i8, ptr %9, align 1, !range !5, !noundef !6
  %67 = trunc i8 %66 to i1
  br i1 %67, label %68, label %69

68:                                               ; preds = %63
  br label %71

69:                                               ; preds = %63
  %70 = load i32, ptr %5, align 4
  br label %71

71:                                               ; preds = %69, %68
  %72 = phi i32 [ 33056, %68 ], [ %70, %69 ]
  %73 = getelementptr inbounds nuw %struct.SDL_AudioSpec, ptr %4, i32 0, i32 0
  store i32 %72, ptr %73, align 4
  call void @llvm.lifetime.end.p0(i64 1, ptr %9) #6
  br label %74

74:                                               ; preds = %71, %50
  call void @llvm.lifetime.start.p0(i64 8, ptr %10) #6
  %75 = load ptr, ptr %7, align 8
  %76 = getelementptr inbounds nuw %struct.SDL_LogicalAudioDevice, ptr %75, i32 0, i32 4
  %77 = load ptr, ptr %76, align 8
  store ptr %77, ptr %10, align 8
  br label %78

78:                                               ; preds = %121, %74
  %79 = load ptr, ptr %10, align 8
  %80 = icmp ne ptr %79, null
  br i1 %80, label %82, label %81

81:                                               ; preds = %78
  store i32 5, ptr %8, align 4
  call void @llvm.lifetime.end.p0(i64 8, ptr %10) #6
  br label %125

82:                                               ; preds = %78
  call void @llvm.lifetime.start.p0(i64 8, ptr %11) #6
  %83 = load i8, ptr %3, align 1, !range !5, !noundef !6
  %84 = trunc i8 %83 to i1
  br i1 %84, label %85, label %88

85:                                               ; preds = %82
  %86 = load ptr, ptr %10, align 8
  %87 = getelementptr inbounds nuw %struct.SDL_AudioStream, ptr %86, i32 0, i32 6
  br label %91

88:                                               ; preds = %82
  %89 = load ptr, ptr %10, align 8
  %90 = getelementptr inbounds nuw %struct.SDL_AudioStream, ptr %89, i32 0, i32 7
  br label %91

91:                                               ; preds = %88, %85
  %92 = phi ptr [ %87, %85 ], [ %90, %88 ]
  store ptr %92, ptr %11, align 8
  call void @llvm.lifetime.start.p0(i64 8, ptr %12) #6
  %93 = load i8, ptr %3, align 1, !range !5, !noundef !6
  %94 = trunc i8 %93 to i1
  br i1 %94, label %95, label %98

95:                                               ; preds = %91
  %96 = load ptr, ptr %10, align 8
  %97 = getelementptr inbounds nuw %struct.SDL_AudioStream, ptr %96, i32 0, i32 8
  br label %101

98:                                               ; preds = %91
  %99 = load ptr, ptr %10, align 8
  %100 = getelementptr inbounds nuw %struct.SDL_AudioStream, ptr %99, i32 0, i32 9
  br label %101

101:                                              ; preds = %98, %95
  %102 = phi ptr [ %97, %95 ], [ %100, %98 ]
  store ptr %102, ptr %12, align 8
  %103 = load ptr, ptr %10, align 8
  %104 = getelementptr inbounds nuw %struct.SDL_AudioStream, ptr %103, i32 0, i32 0
  %105 = load ptr, ptr %104, align 8
  call void @SDL_LockMutex_REAL(ptr noundef %105)
  %106 = load ptr, ptr %11, align 8
  call void @llvm.memcpy.p0.p0.i64(ptr align 4 %106, ptr align 4 %4, i64 12, i1 false)
  %107 = load ptr, ptr %10, align 8
  %108 = load ptr, ptr %11, align 8
  %109 = load ptr, ptr %12, align 8
  %110 = load ptr, ptr %2, align 8
  %111 = getelementptr inbounds nuw %struct.SDL_AudioDevice, ptr %110, i32 0, i32 14
  %112 = load ptr, ptr %111, align 8
  %113 = load ptr, ptr %2, align 8
  %114 = getelementptr inbounds nuw %struct.SDL_AudioDevice, ptr %113, i32 0, i32 12
  %115 = getelementptr inbounds nuw %struct.SDL_AudioSpec, ptr %114, i32 0, i32 1
  %116 = load i32, ptr %115, align 4
  %117 = call zeroext i1 @SetAudioStreamChannelMap(ptr noundef %107, ptr noundef %108, ptr noundef %109, ptr noundef %112, i32 noundef %116, i32 noundef -1)
  %118 = load ptr, ptr %10, align 8
  %119 = getelementptr inbounds nuw %struct.SDL_AudioStream, ptr %118, i32 0, i32 0
  %120 = load ptr, ptr %119, align 8
  call void @SDL_UnlockMutex_REAL(ptr noundef %120)
  call void @llvm.lifetime.end.p0(i64 8, ptr %12) #6
  call void @llvm.lifetime.end.p0(i64 8, ptr %11) #6
  br label %121

121:                                              ; preds = %101
  %122 = load ptr, ptr %10, align 8
  %123 = getelementptr inbounds nuw %struct.SDL_AudioStream, ptr %122, i32 0, i32 21
  %124 = load ptr, ptr %123, align 8
  store ptr %124, ptr %10, align 8
  br label %78, !llvm.loop !20

125:                                              ; preds = %81
  br label %126

126:                                              ; preds = %125
  %127 = load ptr, ptr %7, align 8
  %128 = getelementptr inbounds nuw %struct.SDL_LogicalAudioDevice, ptr %127, i32 0, i32 12
  %129 = load ptr, ptr %128, align 8
  store ptr %129, ptr %7, align 8
  br label %46, !llvm.loop !21

130:                                              ; preds = %49
  call void @llvm.lifetime.end.p0(i64 4, ptr %5) #6
  call void @llvm.lifetime.end.p0(i64 12, ptr %4) #6
  call void @llvm.lifetime.end.p0(i64 1, ptr %3) #6
  br label %131

131:                                              ; preds = %130, %15
  ret void
}