; Function Attrs: nounwind uwtable
define internal fastcc void @UpdateAudioStreamFormatsPhysical(ptr noundef captures(address_is_null) %0) unnamed_addr #0 {
  %.not = icmp eq ptr %0, null
  br i1 %.not, label %.loopexit, label %2

2:                                                ; preds = %1
  %3 = getelementptr inbounds nuw i8, ptr %0, i64 148
  %4 = load i8, ptr %3, align 4, !range !6, !noundef !7
  %5 = trunc nuw i8 %4 to i1
  %6 = getelementptr inbounds nuw i8, ptr %0, i64 96
  %.sroa.0.0.copyload = load i32, ptr %6, align 8
  %.sroa.7.0..sroa_idx = getelementptr inbounds nuw i8, ptr %0, i64 100
  %7 = load i64, ptr %.sroa.7.0..sroa_idx, align 4
  %.phi.trans.insert = getelementptr i8, ptr %0, i64 208
  %.043.pre = load ptr, ptr %.phi.trans.insert, align 8
  %.not3544 = icmp eq ptr %.043.pre, null
  br i1 %5, label %22, label %8

8:                                                ; preds = %2
  br i1 %.not3544, label %.thread65, label %9

9:                                                ; preds = %8
  %10 = getelementptr inbounds nuw i8, ptr %.043.pre, i64 80
  %11 = load ptr, ptr %10, align 8
  %.not6.i = icmp eq ptr %11, null
  br i1 %.not6.i, label %12, label %.lr.ph48.thread69

12:                                               ; preds = %9
  %13 = getelementptr inbounds nuw i8, ptr %.043.pre, i64 64
  %14 = load ptr, ptr %13, align 8
  %.not7.i = icmp eq ptr %14, null
  br i1 %.not7.i, label %15, label %.lr.ph48.thread69

15:                                               ; preds = %12
  %16 = getelementptr inbounds nuw i8, ptr %.043.pre, i64 24
  %17 = load ptr, ptr %16, align 8
  %.not8.i = icmp eq ptr %17, null
  br i1 %.not8.i, label %.lr.ph48.thread69, label %.lr.ph48.thread

.lr.ph48.thread:                                  ; preds = %15
  %18 = getelementptr inbounds nuw i8, ptr %17, i64 200
  %19 = load ptr, ptr %18, align 8
  %.fr = freeze ptr %19
  %.not9.i = icmp eq ptr %.fr, null
  %20 = zext i1 %.not9.i to i8
  %21 = getelementptr inbounds nuw i8, ptr %0, i64 149
  store i8 %20, ptr %21, align 1
  %spec.select = select i1 %.not9.i, i32 %.sroa.0.0.copyload, i32 33056
  br label %.lr.ph48.split.preheader

22:                                               ; preds = %2
  br i1 %.not3544, label %.loopexit, label %.lr.ph48.split.us.preheader

.thread65:                                        ; preds = %8
  %23 = getelementptr inbounds nuw i8, ptr %0, i64 149
  store i8 0, ptr %23, align 1
  br label %.loopexit

.lr.ph48.thread69:                                ; preds = %9, %12, %15
  %24 = getelementptr inbounds nuw i8, ptr %0, i64 149
  store i8 0, ptr %24, align 1
  br label %.lr.ph48.split.preheader

.lr.ph48.split.preheader:                         ; preds = %.lr.ph48.thread69, %.lr.ph48.thread
  %.sroa.0.05661 = phi i32 [ %spec.select, %.lr.ph48.thread ], [ 33056, %.lr.ph48.thread69 ]
  %25 = getelementptr inbounds nuw i8, ptr %0, i64 112
  br label %.lr.ph48.split

.lr.ph48.split.us.preheader:                      ; preds = %22
  %26 = getelementptr inbounds nuw i8, ptr %0, i64 112
  br label %.lr.ph48.split.us

.lr.ph48.split.us:                                ; preds = %.lr.ph48.split.us.preheader, %._crit_edge.us
  %.046.us = phi ptr [ %.0.us, %._crit_edge.us ], [ %.043.pre, %.lr.ph48.split.us.preheader ]
  %27 = getelementptr inbounds nuw i8, ptr %.046.us, i64 64
  %28 = load ptr, ptr %27, align 8
  %.not36.us = icmp eq ptr %28, null
  br i1 %.not36.us, label %29, label %34

29:                                               ; preds = %.lr.ph48.split.us
  %30 = getelementptr inbounds nuw i8, ptr %.046.us, i64 20
  %31 = load float, ptr %30, align 4
  %32 = fcmp une float %31, 1.000000e+00
  %33 = select i1 %32, i32 33056, i32 %.sroa.0.0.copyload
  br label %34

34:                                               ; preds = %29, %.lr.ph48.split.us
  %.sroa.0.3.us = phi i32 [ 33056, %.lr.ph48.split.us ], [ %33, %29 ]
  %35 = getelementptr inbounds nuw i8, ptr %.046.us, i64 24
  %.03340.us = load ptr, ptr %35, align 8
  %.not3741.us = icmp eq ptr %.03340.us, null
  br i1 %.not3741.us, label %._crit_edge.us, label %.lr.ph.us

.lr.ph.us:                                        ; preds = %34, %.lr.ph.us
  %.03342.us = phi ptr [ %.033.us, %.lr.ph.us ], [ %.03340.us, %34 ]
  %36 = getelementptr inbounds nuw i8, ptr %.03342.us, i64 48
  %37 = getelementptr inbounds nuw i8, ptr %.03342.us, i64 72
  %38 = load ptr, ptr %.03342.us, align 8
  tail call void @SDL_LockMutex_REAL(ptr noundef %38) #14
  store i32 %.sroa.0.3.us, ptr %36, align 4
  %.sroa.7.0..0.1.sroa_idx.us = getelementptr inbounds nuw i8, ptr %.03342.us, i64 52
  store i64 %7, ptr %.sroa.7.0..0.1.sroa_idx.us, align 4
  %39 = load ptr, ptr %26, align 8
  %40 = load i32, ptr %.sroa.7.0..sroa_idx, align 4
  %41 = tail call zeroext i1 @SetAudioStreamChannelMap(ptr noundef nonnull %.03342.us, ptr noundef nonnull %36, ptr noundef nonnull %37, ptr noundef %39, i32 noundef %40, i32 noundef -1) #14
  %42 = load ptr, ptr %.03342.us, align 8
  tail call void @SDL_UnlockMutex_REAL(ptr noundef %42) #14
  %43 = getelementptr inbounds nuw i8, ptr %.03342.us, i64 200
  %.033.us = load ptr, ptr %43, align 8
  %.not37.us = icmp eq ptr %.033.us, null
  br i1 %.not37.us, label %._crit_edge.us, label %.lr.ph.us, !llvm.loop !20

._crit_edge.us:                                   ; preds = %.lr.ph.us, %34
  %44 = getelementptr inbounds nuw i8, ptr %.046.us, i64 80
  %.0.us = load ptr, ptr %44, align 8
  %.not35.us = icmp eq ptr %.0.us, null
  br i1 %.not35.us, label %.loopexit, label %.lr.ph48.split.us, !llvm.loop !21

.lr.ph48.split:                                   ; preds = %.lr.ph48.split.preheader, %._crit_edge
  %.046 = phi ptr [ %.0, %._crit_edge ], [ %.043.pre, %.lr.ph48.split.preheader ]
  %45 = getelementptr inbounds nuw i8, ptr %.046, i64 24
  %.03340 = load ptr, ptr %45, align 8
  %.not3741 = icmp eq ptr %.03340, null
  br i1 %.not3741, label %._crit_edge, label %.lr.ph

._crit_edge:                                      ; preds = %.lr.ph, %.lr.ph48.split
  %46 = getelementptr inbounds nuw i8, ptr %.046, i64 80
  %.0 = load ptr, ptr %46, align 8
  %.not35 = icmp eq ptr %.0, null
  br i1 %.not35, label %.loopexit, label %.lr.ph48.split, !llvm.loop !21

.lr.ph:                                           ; preds = %.lr.ph48.split, %.lr.ph
  %.03342 = phi ptr [ %.033, %.lr.ph ], [ %.03340, %.lr.ph48.split ]
  %47 = getelementptr inbounds nuw i8, ptr %.03342, i64 60
  %48 = getelementptr inbounds nuw i8, ptr %.03342, i64 80
  %49 = load ptr, ptr %.03342, align 8
  tail call void @SDL_LockMutex_REAL(ptr noundef %49) #14
  store i32 %.sroa.0.05661, ptr %47, align 4
  %.sroa.7.0..0.1.sroa_idx = getelementptr inbounds nuw i8, ptr %.03342, i64 64
  store i64 %7, ptr %.sroa.7.0..0.1.sroa_idx, align 4
  %50 = load ptr, ptr %25, align 8
  %51 = load i32, ptr %.sroa.7.0..sroa_idx, align 4
  %52 = tail call zeroext i1 @SetAudioStreamChannelMap(ptr noundef nonnull %.03342, ptr noundef nonnull %47, ptr noundef nonnull %48, ptr noundef %50, i32 noundef %51, i32 noundef -1) #14
  %53 = load ptr, ptr %.03342, align 8
  tail call void @SDL_UnlockMutex_REAL(ptr noundef %53) #14
  %54 = getelementptr inbounds nuw i8, ptr %.03342, i64 200
  %.033 = load ptr, ptr %54, align 8
  %.not37 = icmp eq ptr %.033, null
  br i1 %.not37, label %._crit_edge, label %.lr.ph, !llvm.loop !20

.loopexit:                                        ; preds = %._crit_edge, %._crit_edge.us, %.thread65, %22, %1
  ret void
}